; Function Attrs: noinline nounwind uwtable
define internal fastcc signext range(i8 0, 2) i8 @moProcessAcceptsNoSquash128(ptr noundef readonly captures(none) %0, <2 x i64> %.0.val, <2 x i64> %.0.val1, ptr noundef readonly captures(none) %1, i64 noundef %2, ptr noundef readonly captures(none) %3, ptr noundef %4) unnamed_addr #4 {
  %.sroa.0 = alloca <2 x i64>, align 16
  %6 = and <2 x i64> %.0.val1, %.0.val
  call void @llvm.lifetime.start.p0(i64 16, ptr nonnull %.sroa.0)
  store <2 x i64> %.0.val1, ptr %.sroa.0, align 16
  %.sroa.0.8.gep39.sroa_idx40 = getelementptr inbounds nuw i8, ptr %.sroa.0, i64 8
  %.sroa.043.0.vec.extract = extractelement <2 x i64> %6, i64 0
  %.sroa.043.8.vec.extract = extractelement <2 x i64> %6, i64 1
  br label %7

7:                                                ; preds = %5, %.critedge.i.thread
  %8 = phi i1 [ true, %5 ], [ false, %.critedge.i.thread ]
  %indvars.iv.sroa.phi = phi ptr [ %.sroa.0, %5 ], [ %.sroa.0.8.gep39.sroa_idx40, %.critedge.i.thread ]
  %indvars.iv.sroa.phi41.sroa.speculated = phi i64 [ %.sroa.043.0.vec.extract, %5 ], [ %.sroa.043.8.vec.extract, %.critedge.i.thread ]
  %.033.i23 = phi i32 [ 0, %5 ], [ %37, %.critedge.i.thread ]
  %.not.i19 = icmp eq i64 %indvars.iv.sroa.phi41.sroa.speculated, 0
  br i1 %.not.i19, label %..critedge.i.thread_crit_edge, label %.lr.ph21

..critedge.i.thread_crit_edge:                    ; preds = %7
  %.pre = load i64, ptr %indvars.iv.sroa.phi, align 8
  br label %.critedge.i.thread

.lr.ph21:                                         ; preds = %7, %limexRunAccept.exit.thread6
  %.020 = phi i64 [ %11, %limexRunAccept.exit.thread6 ], [ %indvars.iv.sroa.phi41.sroa.speculated, %7 ]
  %9 = tail call { i64, i64 } asm "bsfq $1, $0\0Abtrq $0, $1\0A", "=r,=r,1,~{dirflag},~{fpsr},~{flags}"(i64 %.020) #12, !srcloc !7
  %10 = extractvalue { i64, i64 } %9, 0
  %11 = extractvalue { i64, i64 } %9, 1
  %12 = load i64, ptr %indvars.iv.sroa.phi, align 8
  %13 = and i64 %10, 4294967295
  %notmask.i = shl nsw i64 -1, %13
  %14 = xor i64 %notmask.i, -1
  %15 = and i64 %12, %14
  %16 = tail call range(i64 0, 64) i64 @llvm.ctpop.i64(i64 %15)
  %17 = trunc nuw nsw i64 %16 to i32
  %18 = add i32 %.033.i23, %17
  %19 = zext i32 %18 to i64
  %20 = getelementptr inbounds nuw %struct.NFAAccept, ptr %1, i64 %19
  %21 = load i8, ptr %20, align 4
  %.not.i7 = icmp eq i8 %21, 0
  %22 = getelementptr inbounds nuw i8, ptr %20, i64 4
  %23 = load i32, ptr %22, align 4
  br i1 %.not.i7, label %24, label %limexRunAccept.exit

24:                                               ; preds = %.lr.ph21
  %25 = zext i32 %23 to i64
  %26 = getelementptr inbounds nuw i8, ptr %0, i64 %25
  %27 = load i32, ptr %26, align 4
  %.not.i817 = icmp eq i32 %27, -1
  br i1 %.not.i817, label %limexRunAccept.exit.thread6, label %.lr.ph

28:                                               ; preds = %.lr.ph
  %29 = getelementptr inbounds nuw i8, ptr %.09.i18, i64 4
  %30 = load i32, ptr %29, align 4
  %.not.i8 = icmp eq i32 %30, -1
  br i1 %.not.i8, label %limexRunAccept.exit.thread6, label %.lr.ph

.lr.ph:                                           ; preds = %24, %28
  %31 = phi i32 [ %30, %28 ], [ %27, %24 ]
  %.09.i18 = phi ptr [ %29, %28 ], [ %26, %24 ]
  %32 = tail call i32 %3(i64 noundef 0, i64 noundef %2, i32 noundef %31, ptr noundef %4) #11
  %.not = icmp eq i32 %32, 0
  br i1 %.not, label %moProcessAcceptsImpl128.exit, label %28

limexRunAccept.exit:                              ; preds = %.lr.ph21
  %33 = tail call i32 %3(i64 noundef 0, i64 noundef %2, i32 noundef %23, ptr noundef %4) #11
  %.not44.i = icmp eq i32 %33, 0
  br i1 %.not44.i, label %moProcessAcceptsImpl128.exit, label %limexRunAccept.exit.thread6, !prof !8

limexRunAccept.exit.thread6:                      ; preds = %28, %24, %limexRunAccept.exit
  %.not.i = icmp eq i64 %11, 0
  br i1 %.not.i, label %.critedge.i.thread, label %.lr.ph21

.critedge.i.thread:                               ; preds = %limexRunAccept.exit.thread6, %..critedge.i.thread_crit_edge
  %34 = phi i64 [ %.pre, %..critedge.i.thread_crit_edge ], [ %12, %limexRunAccept.exit.thread6 ]
  %35 = tail call range(i64 0, 65) i64 @llvm.ctpop.i64(i64 %34)
  %36 = trunc nuw nsw i64 %35 to i32
  %37 = add i32 %.033.i23, %36
  br i1 %8, label %7, label %moProcessAcceptsImpl128.exit

moProcessAcceptsImpl128.exit:                     ; preds = %.critedge.i.thread, %limexRunAccept.exit, %.lr.ph
  %spec.select.i = phi i8 [ 1, %.lr.ph ], [ 1, %limexRunAccept.exit ], [ 0, %.critedge.i.thread ]
  call void @llvm.lifetime.end.p0(i64 16, ptr nonnull %.sroa.0)
  ret i8 %spec.select.i
}